(dp0
S'tagprogress'
p1
(dp2
S'/downloads/Music'
p3
(lp4
S'/downloads/Music/Admiral Radley - I Heart California (2010)'
p5
aS'/downloads/Music/All Natural Lemon & Lime Flavors/1996 All Natural Lemon And Lime Flavors'
p6
aS'/downloads/Music/All Natural Lemon & Lime Flavors/1998 Turning Into Small'
p7
aS'/downloads/Music/Big Deal/2011 Lights Out'
p8
aS'/downloads/Music/Big Deal/2016 Say Yes/01.Hold Your Fire.mp3'
p9
aS'/downloads/Music/Big Deal/2016 Say Yes/01.Hold Your Fire.mp3'
p10
aS'/downloads/Music/Big Deal/2016 Say Yes/02.Avalanche.mp3'
p11
aS'/downloads/Music/Big Deal/2016 Say Yes/02.Avalanche.mp3'
p12
aS'/downloads/Music/Big Deal/2016 Say Yes/03.Say Yes.mp3'
p13
aS'/downloads/Music/Big Deal/2016 Say Yes/03.Say Yes.mp3'
p14
aS'/downloads/Music/Big Deal/2016 Say Yes/04.Saccharine.mp3'
p15
aS'/downloads/Music/Big Deal/2016 Say Yes/04.Saccharine.mp3'
p16
aS'/downloads/Music/Big Deal/2016 Say Yes/05.Lux.mp3'
p17
aS'/downloads/Music/Big Deal/2016 Say Yes/05.Lux.mp3'
p18
aS'/downloads/Music/Big Deal/2016 Say Yes/06.Veronica.mp3'
p19
aS'/downloads/Music/Big Deal/2016 Say Yes/06.Veronica.mp3'
p20
aS'/downloads/Music/Big Deal/2016 Say Yes/07.V.I.T.R.I.O.L_.mp3'
p21
aS'/downloads/Music/Big Deal/2016 Say Yes/07.V.I.T.R.I.O.L_.mp3'
p22
aS'/downloads/Music/Big Deal/2016 Say Yes/08.Kitty Pride.mp3'
p23
aS'/downloads/Music/Big Deal/2016 Say Yes/08.Kitty Pride.mp3'
p24
aS'/downloads/Music/Big Deal/2016 Say Yes/09.Still My Dream.mp3'
p25
aS'/downloads/Music/Big Deal/2016 Say Yes/09.Still My Dream.mp3'
p26
aS"/downloads/Music/Big Deal/2016 Say Yes/10.Don't Forget.mp3"
p27
aS"/downloads/Music/Big Deal/2016 Say Yes/10.Don't Forget.mp3"
p28
aS'/downloads/Music/Big Deal/2016 Say Yes/11.Idyllwild.mp3'
p29
aS'/downloads/Music/Big Deal/2016 Say Yes/11.Idyllwild.mp3'
p30
aS'/downloads/Music/Craft Spells/2011 Idle Labor/01.For the Ages.mp3'
p31
aS'/downloads/Music/Craft Spells/2011 Idle Labor/01.For the Ages.mp3'
p32
aS'/downloads/Music/Craft Spells/2011 Idle Labor/02.Scandinavian Crush.mp3'
p33
aS'/downloads/Music/Craft Spells/2011 Idle Labor/02.Scandinavian Crush.mp3'
p34
aS'/downloads/Music/Craft Spells/2011 Idle Labor/03.The Fog Rose High.mp3'
p35
aS'/downloads/Music/Craft Spells/2011 Idle Labor/03.The Fog Rose High.mp3'
p36
aS'/downloads/Music/Craft Spells/2011 Idle Labor/04.Party Talk.mp3'
p37
aS'/downloads/Music/Craft Spells/2011 Idle Labor/04.Party Talk.mp3'
p38
aS'/downloads/Music/Craft Spells/2011 Idle Labor/05.From the Morning Heat.mp3'
p39
aS'/downloads/Music/Craft Spells/2011 Idle Labor/05.From the Morning Heat.mp3'
p40
aS'/downloads/Music/Craft Spells/2011 Idle Labor/06.After the Moment.mp3'
p41
aS'/downloads/Music/Craft Spells/2011 Idle Labor/06.After the Moment.mp3'
p42
aS'/downloads/Music/Craft Spells/2011 Idle Labor/07.Ramona.mp3'
p43
aS'/downloads/Music/Craft Spells/2011 Idle Labor/07.Ramona.mp3'
p44
aS'/downloads/Music/Craft Spells/2011 Idle Labor/08.Given the Time.mp3'
p45
aS'/downloads/Music/Craft Spells/2011 Idle Labor/08.Given the Time.mp3'
p46
aS'/downloads/Music/Craft Spells/2011 Idle Labor/09.Your Tomb.mp3'
p47
aS'/downloads/Music/Craft Spells/2011 Idle Labor/09.Your Tomb.mp3'
p48
aS'/downloads/Music/Craft Spells/2011 Idle Labor/10.You Should Close the Door.mp3'
p49
aS'/downloads/Music/Craft Spells/2011 Idle Labor/10.You Should Close the Door.mp3'
p50
aS'/downloads/Music/Craft Spells/2011 Idle Labor/11.Beauty Above All.mp3'
p51
aS'/downloads/Music/Craft Spells/2011 Idle Labor/11.Beauty Above All.mp3'
p52
aS'/downloads/Music/Craft Spells/2012 Gallery/01.Still Left With Me.mp3'
p53
aS'/downloads/Music/Craft Spells/2012 Gallery/01.Still Left With Me.mp3'
p54
aS'/downloads/Music/Craft Spells/2012 Gallery/02.Warmth.mp3'
p55
aS'/downloads/Music/Craft Spells/2012 Gallery/02.Warmth.mp3'
p56
aS'/downloads/Music/Craft Spells/2012 Gallery/03.Burst.mp3'
p57
aS'/downloads/Music/Craft Spells/2012 Gallery/03.Burst.mp3'
p58
aS'/downloads/Music/Craft Spells/2012 Gallery/04.Leave My Shadow.mp3'
p59
aS'/downloads/Music/Craft Spells/2012 Gallery/04.Leave My Shadow.mp3'
p60
aS'/downloads/Music/Craft Spells/2012 Gallery/05.Sun Trails.mp3'
p61
aS'/downloads/Music/Craft Spells/2012 Gallery/05.Sun Trails.mp3'
p62
aS'/downloads/Music/Craft Spells/2012 Gallery/06.Gallery.mp3'
p63
aS'/downloads/Music/Craft Spells/2012 Gallery/06.Gallery.mp3'
p64
aS'/downloads/Music/Deerhunter/2013 Monomania/01.Neon Junkyard.mp3'
p65
aS'/downloads/Music/Deerhunter/2013 Monomania/01.Neon Junkyard.mp3'
p66
aS'/downloads/Music/Deerhunter/2013 Monomania/02.Leather Jacket II.mp3'
p67
aS'/downloads/Music/Deerhunter/2013 Monomania/02.Leather Jacket II.mp3'
p68
aS'/downloads/Music/Deerhunter/2013 Monomania/03.The Missing.mp3'
p69
aS'/downloads/Music/Deerhunter/2013 Monomania/03.The Missing.mp3'
p70
aS'/downloads/Music/Deerhunter/2013 Monomania/04.Pensacola.mp3'
p71
aS'/downloads/Music/Deerhunter/2013 Monomania/04.Pensacola.mp3'
p72
aS'/downloads/Music/Deerhunter/2013 Monomania/05.Dream Captain.mp3'
p73
aS'/downloads/Music/Deerhunter/2013 Monomania/05.Dream Captain.mp3'
p74
aS'/downloads/Music/Deerhunter/2013 Monomania/06.Blue Agent.mp3'
p75
aS'/downloads/Music/Deerhunter/2013 Monomania/06.Blue Agent.mp3'
p76
aS'/downloads/Music/Deerhunter/2013 Monomania/07.T.H.M..mp3'
p77
aS'/downloads/Music/Deerhunter/2013 Monomania/07.T.H.M..mp3'
p78
aS'/downloads/Music/Deerhunter/2013 Monomania/08.Sleepwalking.mp3'
p79
aS'/downloads/Music/Deerhunter/2013 Monomania/08.Sleepwalking.mp3'
p80
aS'/downloads/Music/Deerhunter/2013 Monomania/09.Back to the Middle.mp3'
p81
aS'/downloads/Music/Deerhunter/2013 Monomania/09.Back to the Middle.mp3'
p82
aS'/downloads/Music/Deerhunter/2013 Monomania/10.Monomania.mp3'
p83
aS'/downloads/Music/Deerhunter/2013 Monomania/10.Monomania.mp3'
p84
aS'/downloads/Music/Deerhunter/2013 Monomania/11.Nitebike.mp3'
p85
aS'/downloads/Music/Deerhunter/2013 Monomania/11.Nitebike.mp3'
p86
aS'/downloads/Music/Deerhunter/2013 Monomania/12.Punk (La Vie Ante\xcc\x81rieure).mp3'
p87
aS'/downloads/Music/Deerhunter/2013 Monomania/12.Punk (La Vie Ante\xcc\x81rieure).mp3'
p88
aS'/downloads/Music/Desolation Wilderness/2007 Beautiful on the Avenue/01.Daughter of a Rich Man.mp3'
p89
aS'/downloads/Music/Desolation Wilderness/2007 Beautiful on the Avenue/01.Daughter of a Rich Man.mp3'
p90
aS'/downloads/Music/Desolation Wilderness/2007 Beautiful on the Avenue/02.New York Girl.mp3'
p91
aS'/downloads/Music/Desolation Wilderness/2007 Beautiful on the Avenue/02.New York Girl.mp3'
p92
aS'/downloads/Music/Desolation Wilderness/2007 Beautiful on the Avenue/03.Dusk Song.mp3'
p93
aS'/downloads/Music/Desolation Wilderness/2007 Beautiful on the Avenue/03.Dusk Song.mp3'
p94
aS"/downloads/Music/Desolation Wilderness/2007 Beautiful on the Avenue/04.Don't Talk.mp3"
p95
aS"/downloads/Music/Desolation Wilderness/2007 Beautiful on the Avenue/04.Don't Talk.mp3"
p96
aS'/downloads/Music/Desolation Wilderness/2007 Beautiful on the Avenue/05.Needle Park.mp3'
p97
aS'/downloads/Music/Desolation Wilderness/2007 Beautiful on the Avenue/05.Needle Park.mp3'
p98
aS'/downloads/Music/Desolation Wilderness/2007 Beautiful on the Avenue/06.American Dream Home with Warm Lights.mp3'
p99
aS'/downloads/Music/Desolation Wilderness/2007 Beautiful on the Avenue/06.American Dream Home with Warm Lights.mp3'
p100
aS'/downloads/Music/Desolation Wilderness/2007 Beautiful on the Avenue/08.Sun Splinter.mp3'
p101
aS'/downloads/Music/Desolation Wilderness/2007 Beautiful on the Avenue/08.Sun Splinter.mp3'
p102
aS'/downloads/Music/Desolation Wilderness/2007 Beautiful on the Avenue/09.Palm Desert.mp3'
p103
aS'/downloads/Music/Desolation Wilderness/2007 Beautiful on the Avenue/09.Palm Desert.mp3'
p104
aS'/downloads/Music/Desolation Wilderness/2007 Beautiful on the Avenue/10.Desolation Angel.mp3'
p105
aS'/downloads/Music/Desolation Wilderness/2007 Beautiful on the Avenue/10.Desolation Angel.mp3'
p106
aS'/downloads/Music/Desolation Wilderness/2007 Beautiful on the Avenue/11.San Fernando Suburbs.mp3'
p107
aS'/downloads/Music/Desolation Wilderness/2007 Beautiful on the Avenue/11.San Fernando Suburbs.mp3'
p108
aS'/downloads/Music/Desolation Wilderness/2007 Beautiful on the Avenue/12.In Love with Anything.mp3'
p109
aS'/downloads/Music/Desolation Wilderness/2007 Beautiful on the Avenue/12.In Love with Anything.mp3'
p110
aS'/downloads/Music/Desolation Wilderness/2007 Beautiful on the Avenue/13.Radio Wave Repeater.mp3'
p111
aS'/downloads/Music/Desolation Wilderness/2007 Beautiful on the Avenue/13.Radio Wave Repeater.mp3'
p112
aS'/downloads/Music/Desolation Wilderness/2007 Beautiful on the Avenue/14.Come Home with Me.mp3'
p113
aS'/downloads/Music/Desolation Wilderness/2007 Beautiful on the Avenue/14.Come Home with Me.mp3'
p114
aS'/downloads/Music/Desolation Wilderness/2008 Until Forever EP/01.Goodbye Summer Girl.mp3'
p115
aS'/downloads/Music/Desolation Wilderness/2008 Until Forever EP/01.Goodbye Summer Girl.mp3'
p116
aS'/downloads/Music/Desolation Wilderness/2008 Until Forever EP/02.Gloria.mp3'
p117
aS'/downloads/Music/Desolation Wilderness/2008 Until Forever EP/02.Gloria.mp3'
p118
aS'/downloads/Music/Desolation Wilderness/2008 Until Forever EP/03.4-4 Love Song.mp3'
p119
aS'/downloads/Music/Desolation Wilderness/2008 Until Forever EP/03.4-4 Love Song.mp3'
p120
aS'/downloads/Music/Desolation Wilderness/2008 White Strobe Lightning/01.USA Highway.mp3'
p121
aS'/downloads/Music/Desolation Wilderness/2008 White Strobe Lightning/01.USA Highway.mp3'
p122
aS'/downloads/Music/Desolation Wilderness/2008 White Strobe Lightning/02.Come Over In Your Silver Car.mp3'
p123
aS'/downloads/Music/Desolation Wilderness/2008 White Strobe Lightning/02.Come Over In Your Silver Car.mp3'
p124
aS'/downloads/Music/Desolation Wilderness/2008 White Strobe Lightning/03.And All The Boys Looked.mp3'
p125
aS'/downloads/Music/Desolation Wilderness/2008 White Strobe Lightning/03.And All The Boys Looked.mp3'
p126
aS'/downloads/Music/Desolation Wilderness/2008 White Strobe Lightning/04.Paris To New York.mp3'
p127
aS'/downloads/Music/Desolation Wilderness/2008 White Strobe Lightning/04.Paris To New York.mp3'
p128
aS'/downloads/Music/Desolation Wilderness/2008 White Strobe Lightning/05.Leaving Song.mp3'
p129
aS'/downloads/Music/Desolation Wilderness/2008 White Strobe Lightning/05.Leaving Song.mp3'
p130
aS'/downloads/Music/Desolation Wilderness/2008 White Strobe Lightning/06.Road Song.mp3'
p131
aS'/downloads/Music/Desolation Wilderness/2008 White Strobe Lightning/06.Road Song.mp3'
p132
aS'/downloads/Music/Desolation Wilderness/2008 White Strobe Lightning/07.Forget Everything.mp3'
p133
aS'/downloads/Music/Desolation Wilderness/2008 White Strobe Lightning/07.Forget Everything.mp3'
p134
aS'/downloads/Music/Desolation Wilderness/2008 White Strobe Lightning/08.Jupiter.mp3'
p135
aS'/downloads/Music/Desolation Wilderness/2008 White Strobe Lightning/08.Jupiter.mp3'
p136
aS'/downloads/Music/Desolation Wilderness/2008 White Strobe Lightning/09.Turquoise And Gold.mp3'
p137
aS'/downloads/Music/Desolation Wilderness/2008 White Strobe Lightning/09.Turquoise And Gold.mp3'
p138
aS'/downloads/Music/Desolation Wilderness/2008 White Strobe Lightning/10.Horizon Star.mp3'
p139
aS'/downloads/Music/Desolation Wilderness/2008 White Strobe Lightning/10.Horizon Star.mp3'
p140
aS'/downloads/Music/Desolation Wilderness/2009 New Universe/01.Venice Beach.mp3'
p141
aS'/downloads/Music/Desolation Wilderness/2009 New Universe/01.Venice Beach.mp3'
p142
aS'/downloads/Music/Desolation Wilderness/2009 New Universe/02.Boardwalk Theme.mp3'
p143
aS'/downloads/Music/Desolation Wilderness/2009 New Universe/02.Boardwalk Theme.mp3'
p144
aS'/downloads/Music/Desolation Wilderness/2009 New Universe/03.Moon Dreams.mp3'
p145
aS'/downloads/Music/Desolation Wilderness/2009 New Universe/03.Moon Dreams.mp3'
p146
aS'/downloads/Music/Desolation Wilderness/2009 New Universe/04.Strange Cool Girl.mp3'
p147
aS'/downloads/Music/Desolation Wilderness/2009 New Universe/04.Strange Cool Girl.mp3'
p148
aS'/downloads/Music/Desolation Wilderness/2009 New Universe/05.Slow Fade.mp3'
p149
aS'/downloads/Music/Desolation Wilderness/2009 New Universe/05.Slow Fade.mp3'
p150
aS'/downloads/Music/Desolation Wilderness/2009 New Universe/06.Restless Heart.mp3'
p151
aS'/downloads/Music/Desolation Wilderness/2009 New Universe/06.Restless Heart.mp3'
p152
aS'/downloads/Music/Desolation Wilderness/2009 New Universe/07.Satellite Song.mp3'
p153
aS'/downloads/Music/Desolation Wilderness/2009 New Universe/07.Satellite Song.mp3'
p154
aS'/downloads/Music/Desolation Wilderness/2009 New Universe/08.San Francisco 2AM.mp3'
p155
aS'/downloads/Music/Desolation Wilderness/2009 New Universe/08.San Francisco 2AM.mp3'
p156
aS'/downloads/Music/Desolation Wilderness/2009 New Universe/09.You Hold A Power Over Me.mp3'
p157
aS'/downloads/Music/Desolation Wilderness/2009 New Universe/09.You Hold A Power Over Me.mp3'
p158
aS'/downloads/Music/Desolation Wilderness/2009 New Universe/10.No Tomorrow.mp3'
p159
aS'/downloads/Music/Desolation Wilderness/2009 New Universe/10.No Tomorrow.mp3'
p160
aS'/downloads/Music/Electronic/1991 Electronic/02.Reality.mp3'
p161
aS'/downloads/Music/Electronic/1991 Electronic/02.Reality.mp3'
p162
aS'/downloads/Music/Electronic/1991 Electronic/03.Tighten Up.mp3'
p163
aS'/downloads/Music/Electronic/1991 Electronic/03.Tighten Up.mp3'
p164
aS'/downloads/Music/Electronic/1991 Electronic/04.The Patience Of A Saint.mp3'
p165
aS'/downloads/Music/Electronic/1991 Electronic/04.The Patience Of A Saint.mp3'
p166
aS'/downloads/Music/Electronic/1991 Electronic/05.Getting Away With It.mp3'
p167
aS'/downloads/Music/Electronic/1991 Electronic/05.Getting Away With It.mp3'
p168
aS'/downloads/Music/Electronic/1991 Electronic/06.Gangster.mp3'
p169
aS'/downloads/Music/Electronic/1991 Electronic/06.Gangster.mp3'
p170
aS'/downloads/Music/Electronic/1991 Electronic/07.Soviet.mp3'
p171
aS'/downloads/Music/Electronic/1991 Electronic/07.Soviet.mp3'
p172
aS'/downloads/Music/Electronic/1991 Electronic/08.Get The Message.mp3'
p173
aS'/downloads/Music/Electronic/1991 Electronic/08.Get The Message.mp3'
p174
aS'/downloads/Music/Electronic/1991 Electronic/09.Try All You Want.mp3'
p175
aS'/downloads/Music/Electronic/1991 Electronic/09.Try All You Want.mp3'
p176
aS'/downloads/Music/Electronic/1991 Electronic/10.Some Distant Memory.mp3'
p177
aS'/downloads/Music/Electronic/1991 Electronic/10.Some Distant Memory.mp3'
p178
aS'/downloads/Music/Electronic/1991 Electronic/11.Feel Every Beat.mp3'
p179
aS'/downloads/Music/Electronic/1991 Electronic/11.Feel Every Beat.mp3'
p180
aS'/downloads/Music/Electronic/1996 Raise The Pressure/01.Forbidden City.mp3'
p181
aS'/downloads/Music/Electronic/1996 Raise The Pressure/01.Forbidden City.mp3'
p182
aS'/downloads/Music/Electronic/1996 Raise The Pressure/02.For You.mp3'
p183
aS'/downloads/Music/Electronic/1996 Raise The Pressure/02.For You.mp3'
p184
aS'/downloads/Music/Electronic/1996 Raise The Pressure/03.Dark Angel.mp3'
p185
aS'/downloads/Music/Electronic/1996 Raise The Pressure/03.Dark Angel.mp3'
p186
aS'/downloads/Music/Electronic/1996 Raise The Pressure/04.One Day.mp3'
p187
aS'/downloads/Music/Electronic/1996 Raise The Pressure/04.One Day.mp3'
p188
aS'/downloads/Music/Electronic/1996 Raise The Pressure/05.Until The End Of Time.mp3'
p189
aS'/downloads/Music/Electronic/1996 Raise The Pressure/05.Until The End Of Time.mp3'
p190
aS'/downloads/Music/Electronic/1996 Raise The Pressure/06.Second Nature.mp3'
p191
aS'/downloads/Music/Electronic/1996 Raise The Pressure/06.Second Nature.mp3'
p192
aS"/downloads/Music/Electronic/1996 Raise The Pressure/07.If You've Got Love.mp3"
p193
aS"/downloads/Music/Electronic/1996 Raise The Pressure/07.If You've Got Love.mp3"
p194
aS'/downloads/Music/Electronic/1996 Raise The Pressure/08.Out Of My League.mp3'
p195
aS'/downloads/Music/Electronic/1996 Raise The Pressure/08.Out Of My League.mp3'
p196
aS'/downloads/Music/Electronic/1996 Raise The Pressure/09.Interlude.mp3'
p197
aS'/downloads/Music/Electronic/1996 Raise The Pressure/09.Interlude.mp3'
p198
aS'/downloads/Music/Electronic/1996 Raise The Pressure/10.Freefall.mp3'
p199
aS'/downloads/Music/Electronic/1996 Raise The Pressure/10.Freefall.mp3'
p200
aS'/downloads/Music/Electronic/1996 Raise The Pressure/11.Visit Me.mp3'
p201
aS'/downloads/Music/Electronic/1996 Raise The Pressure/11.Visit Me.mp3'
p202
aS'/downloads/Music/Electronic/1996 Raise The Pressure/12.How Long.mp3'
p203
aS'/downloads/Music/Electronic/1996 Raise The Pressure/12.How Long.mp3'
p204
aS'/downloads/Music/Electronic/1996 Raise The Pressure/13.Time Can Tell.mp3'
p205
aS'/downloads/Music/Electronic/1996 Raise The Pressure/13.Time Can Tell.mp3'
p206
aS'/downloads/Music/Electronic/2000 Twisted Tenderness/01.Make It Happen.mp3'
p207
aS'/downloads/Music/Electronic/2000 Twisted Tenderness/01.Make It Happen.mp3'
p208
aS'/downloads/Music/Electronic/2000 Twisted Tenderness/02.Haze.mp3'
p209
aS'/downloads/Music/Electronic/2000 Twisted Tenderness/02.Haze.mp3'
p210
aS'/downloads/Music/Electronic/2000 Twisted Tenderness/03.Vivid.mp3'
p211
aS'/downloads/Music/Electronic/2000 Twisted Tenderness/03.Vivid.mp3'
p212
aS'/downloads/Music/Electronic/2000 Twisted Tenderness/04.Breakdown.mp3'
p213
aS'/downloads/Music/Electronic/2000 Twisted Tenderness/04.Breakdown.mp3'
p214
aS"/downloads/Music/Electronic/2000 Twisted Tenderness/05.Can't Find My Way Home.mp3"
p215
aS"/downloads/Music/Electronic/2000 Twisted Tenderness/05.Can't Find My Way Home.mp3"
p216
aS'/downloads/Music/Electronic/2000 Twisted Tenderness/06.Twisted Tenderness.mp3'
p217
aS'/downloads/Music/Electronic/2000 Twisted Tenderness/06.Twisted Tenderness.mp3'
p218
aS'/downloads/Music/Electronic/2000 Twisted Tenderness/07.Like No Other.mp3'
p219
aS'/downloads/Music/Electronic/2000 Twisted Tenderness/07.Like No Other.mp3'
p220
aS'/downloads/Music/Electronic/2000 Twisted Tenderness/08.Late at Night.mp3'
p221
aS'/downloads/Music/Electronic/2000 Twisted Tenderness/08.Late at Night.mp3'
p222
aS'/downloads/Music/Electronic/2000 Twisted Tenderness/09.Prodigal Son.mp3'
p223
aS'/downloads/Music/Electronic/2000 Twisted Tenderness/09.Prodigal Son.mp3'
p224
aS"/downloads/Music/Electronic/2000 Twisted Tenderness/10.When She's Gone.mp3"
p225
aS"/downloads/Music/Electronic/2000 Twisted Tenderness/10.When She's Gone.mp3"
p226
aS'/downloads/Music/Electronic/2000 Twisted Tenderness/11.Flicker.mp3'
p227
aS'/downloads/Music/Electronic/2000 Twisted Tenderness/11.Flicker.mp3'
p228
aS'/downloads/Music/Electronic/2006 Get The Message/05.Disappointed [Single Mix].mp3'
p229
aS'/downloads/Music/Electronic/2006 Get The Message/05.Disappointed [Single Mix].mp3'
p230
aS'/downloads/Music/Electronic/2006 Get The Message/08.All That I Need.mp3'
p231
aS'/downloads/Music/Electronic/2006 Get The Message/08.All That I Need.mp3'
p232
aS'/downloads/Music/Electronic/2006 Get The Message/11.Imitation Of Life [New Edit].mp3'
p233
aS'/downloads/Music/Electronic/2006 Get The Message/11.Imitation Of Life [New Edit].mp3'
p234
assS'taghistory'
p235
c__builtin__
set
p236
((lp237
(S'/downloads/Music/Electronic/2006 Get The Message/05.Disappointed [Single Mix].mp3'
p238
S'/downloads/Music/Electronic/2006 Get The Message/08.All That I Need.mp3'
p239
S'/downloads/Music/Electronic/2006 Get The Message/11.Imitation Of Life [New Edit].mp3'
p240
tp241
a(S'/downloads/Music/All Natural Lemon & Lime Flavors/1998 Turning Into Small'
p242
tp243
a(S'/downloads/Music/Craft Spells/2011 Idle Labor/01.For the Ages.mp3'
p244
S'/downloads/Music/Craft Spells/2011 Idle Labor/02.Scandinavian Crush.mp3'
p245
S'/downloads/Music/Craft Spells/2011 Idle Labor/03.The Fog Rose High.mp3'
p246
S'/downloads/Music/Craft Spells/2011 Idle Labor/04.Party Talk.mp3'
p247
S'/downloads/Music/Craft Spells/2011 Idle Labor/05.From the Morning Heat.mp3'
p248
S'/downloads/Music/Craft Spells/2011 Idle Labor/06.After the Moment.mp3'
p249
S'/downloads/Music/Craft Spells/2011 Idle Labor/07.Ramona.mp3'
p250
S'/downloads/Music/Craft Spells/2011 Idle Labor/08.Given the Time.mp3'
p251
S'/downloads/Music/Craft Spells/2011 Idle Labor/09.Your Tomb.mp3'
p252
S'/downloads/Music/Craft Spells/2011 Idle Labor/10.You Should Close the Door.mp3'
p253
S'/downloads/Music/Craft Spells/2011 Idle Labor/11.Beauty Above All.mp3'
p254
tp255
a(S'/downloads/Music/Desolation Wilderness/2007 Beautiful on the Avenue/01.Daughter of a Rich Man.mp3'
p256
S'/downloads/Music/Desolation Wilderness/2007 Beautiful on the Avenue/02.New York Girl.mp3'
p257
S'/downloads/Music/Desolation Wilderness/2007 Beautiful on the Avenue/03.Dusk Song.mp3'
p258
S"/downloads/Music/Desolation Wilderness/2007 Beautiful on the Avenue/04.Don't Talk.mp3"
p259
S'/downloads/Music/Desolation Wilderness/2007 Beautiful on the Avenue/05.Needle Park.mp3'
p260
S'/downloads/Music/Desolation Wilderness/2007 Beautiful on the Avenue/06.American Dream Home with Warm Lights.mp3'
p261
S'/downloads/Music/Desolation Wilderness/2007 Beautiful on the Avenue/08.Sun Splinter.mp3'
p262
S'/downloads/Music/Desolation Wilderness/2007 Beautiful on the Avenue/09.Palm Desert.mp3'
p263
S'/downloads/Music/Desolation Wilderness/2007 Beautiful on the Avenue/10.Desolation Angel.mp3'
p264
S'/downloads/Music/Desolation Wilderness/2007 Beautiful on the Avenue/11.San Fernando Suburbs.mp3'
p265
S'/downloads/Music/Desolation Wilderness/2007 Beautiful on the Avenue/12.In Love with Anything.mp3'
p266
S'/downloads/Music/Desolation Wilderness/2007 Beautiful on the Avenue/13.Radio Wave Repeater.mp3'
p267
S'/downloads/Music/Desolation Wilderness/2007 Beautiful on the Avenue/14.Come Home with Me.mp3'
p268
tp269
a(S'/downloads/Music/Desolation Wilderness/2008 White Strobe Lightning/01.USA Highway.mp3'
p270
S'/downloads/Music/Desolation Wilderness/2008 White Strobe Lightning/02.Come Over In Your Silver Car.mp3'
p271
S'/downloads/Music/Desolation Wilderness/2008 White Strobe Lightning/03.And All The Boys Looked.mp3'
p272
S'/downloads/Music/Desolation Wilderness/2008 White Strobe Lightning/04.Paris To New York.mp3'
p273
S'/downloads/Music/Desolation Wilderness/2008 White Strobe Lightning/05.Leaving Song.mp3'
p274
S'/downloads/Music/Desolation Wilderness/2008 White Strobe Lightning/06.Road Song.mp3'
p275
S'/downloads/Music/Desolation Wilderness/2008 White Strobe Lightning/07.Forget Everything.mp3'
p276
S'/downloads/Music/Desolation Wilderness/2008 White Strobe Lightning/08.Jupiter.mp3'
p277
S'/downloads/Music/Desolation Wilderness/2008 White Strobe Lightning/09.Turquoise And Gold.mp3'
p278
S'/downloads/Music/Desolation Wilderness/2008 White Strobe Lightning/10.Horizon Star.mp3'
p279
tp280
a(S'/downloads/Music/Deerhunter/2013 Monomania/01.Neon Junkyard.mp3'
p281
S'/downloads/Music/Deerhunter/2013 Monomania/02.Leather Jacket II.mp3'
p282
S'/downloads/Music/Deerhunter/2013 Monomania/03.The Missing.mp3'
p283
S'/downloads/Music/Deerhunter/2013 Monomania/04.Pensacola.mp3'
p284
S'/downloads/Music/Deerhunter/2013 Monomania/05.Dream Captain.mp3'
p285
S'/downloads/Music/Deerhunter/2013 Monomania/06.Blue Agent.mp3'
p286
S'/downloads/Music/Deerhunter/2013 Monomania/07.T.H.M..mp3'
p287
S'/downloads/Music/Deerhunter/2013 Monomania/08.Sleepwalking.mp3'
p288
S'/downloads/Music/Deerhunter/2013 Monomania/09.Back to the Middle.mp3'
p289
S'/downloads/Music/Deerhunter/2013 Monomania/10.Monomania.mp3'
p290
S'/downloads/Music/Deerhunter/2013 Monomania/11.Nitebike.mp3'
p291
S'/downloads/Music/Deerhunter/2013 Monomania/12.Punk (La Vie Ante\xcc\x81rieure).mp3'
p292
tp293
a(S'/downloads/Music/Big Deal/2016 Say Yes/01.Hold Your Fire.mp3'
p294
S'/downloads/Music/Big Deal/2016 Say Yes/02.Avalanche.mp3'
p295
S'/downloads/Music/Big Deal/2016 Say Yes/03.Say Yes.mp3'
p296
S'/downloads/Music/Big Deal/2016 Say Yes/04.Saccharine.mp3'
p297
S'/downloads/Music/Big Deal/2016 Say Yes/05.Lux.mp3'
p298
S'/downloads/Music/Big Deal/2016 Say Yes/06.Veronica.mp3'
p299
S'/downloads/Music/Big Deal/2016 Say Yes/07.V.I.T.R.I.O.L_.mp3'
p300
S'/downloads/Music/Big Deal/2016 Say Yes/08.Kitty Pride.mp3'
p301
S'/downloads/Music/Big Deal/2016 Say Yes/09.Still My Dream.mp3'
p302
S"/downloads/Music/Big Deal/2016 Say Yes/10.Don't Forget.mp3"
p303
S'/downloads/Music/Big Deal/2016 Say Yes/11.Idyllwild.mp3'
p304
tp305
a(S'/downloads/Music/Electronic/1991 Electronic/02.Reality.mp3'
p306
S'/downloads/Music/Electronic/1991 Electronic/03.Tighten Up.mp3'
p307
S'/downloads/Music/Electronic/1991 Electronic/04.The Patience Of A Saint.mp3'
p308
S'/downloads/Music/Electronic/1991 Electronic/05.Getting Away With It.mp3'
p309
S'/downloads/Music/Electronic/1991 Electronic/06.Gangster.mp3'
p310
S'/downloads/Music/Electronic/1991 Electronic/07.Soviet.mp3'
p311
S'/downloads/Music/Electronic/1991 Electronic/08.Get The Message.mp3'
p312
S'/downloads/Music/Electronic/1991 Electronic/09.Try All You Want.mp3'
p313
S'/downloads/Music/Electronic/1991 Electronic/10.Some Distant Memory.mp3'
p314
S'/downloads/Music/Electronic/1991 Electronic/11.Feel Every Beat.mp3'
p315
tp316
a(S'/downloads/Music/Electronic/2000 Twisted Tenderness/01.Make It Happen.mp3'
p317
S'/downloads/Music/Electronic/2000 Twisted Tenderness/02.Haze.mp3'
p318
S'/downloads/Music/Electronic/2000 Twisted Tenderness/03.Vivid.mp3'
p319
S'/downloads/Music/Electronic/2000 Twisted Tenderness/04.Breakdown.mp3'
p320
S"/downloads/Music/Electronic/2000 Twisted Tenderness/05.Can't Find My Way Home.mp3"
p321
S'/downloads/Music/Electronic/2000 Twisted Tenderness/06.Twisted Tenderness.mp3'
p322
S'/downloads/Music/Electronic/2000 Twisted Tenderness/07.Like No Other.mp3'
p323
S'/downloads/Music/Electronic/2000 Twisted Tenderness/08.Late at Night.mp3'
p324
S'/downloads/Music/Electronic/2000 Twisted Tenderness/09.Prodigal Son.mp3'
p325
S"/downloads/Music/Electronic/2000 Twisted Tenderness/10.When She's Gone.mp3"
p326
S'/downloads/Music/Electronic/2000 Twisted Tenderness/11.Flicker.mp3'
p327
tp328
a(S'/downloads/Music/Electronic/1996 Raise The Pressure/01.Forbidden City.mp3'
p329
S'/downloads/Music/Electronic/1996 Raise The Pressure/02.For You.mp3'
p330
S'/downloads/Music/Electronic/1996 Raise The Pressure/03.Dark Angel.mp3'
p331
S'/downloads/Music/Electronic/1996 Raise The Pressure/04.One Day.mp3'
p332
S'/downloads/Music/Electronic/1996 Raise The Pressure/05.Until The End Of Time.mp3'
p333
S'/downloads/Music/Electronic/1996 Raise The Pressure/06.Second Nature.mp3'
p334
S"/downloads/Music/Electronic/1996 Raise The Pressure/07.If You've Got Love.mp3"
p335
S'/downloads/Music/Electronic/1996 Raise The Pressure/08.Out Of My League.mp3'
p336
S'/downloads/Music/Electronic/1996 Raise The Pressure/09.Interlude.mp3'
p337
S'/downloads/Music/Electronic/1996 Raise The Pressure/10.Freefall.mp3'
p338
S'/downloads/Music/Electronic/1996 Raise The Pressure/11.Visit Me.mp3'
p339
S'/downloads/Music/Electronic/1996 Raise The Pressure/12.How Long.mp3'
p340
S'/downloads/Music/Electronic/1996 Raise The Pressure/13.Time Can Tell.mp3'
p341
tp342
a(S'/downloads/Music/All Natural Lemon & Lime Flavors/1996 All Natural Lemon And Lime Flavors'
p343
tp344
a(S'/downloads/Music/Desolation Wilderness/2009 New Universe/01.Venice Beach.mp3'
p345
S'/downloads/Music/Desolation Wilderness/2009 New Universe/02.Boardwalk Theme.mp3'
p346
S'/downloads/Music/Desolation Wilderness/2009 New Universe/03.Moon Dreams.mp3'
p347
S'/downloads/Music/Desolation Wilderness/2009 New Universe/04.Strange Cool Girl.mp3'
p348
S'/downloads/Music/Desolation Wilderness/2009 New Universe/05.Slow Fade.mp3'
p349
S'/downloads/Music/Desolation Wilderness/2009 New Universe/06.Restless Heart.mp3'
p350
S'/downloads/Music/Desolation Wilderness/2009 New Universe/07.Satellite Song.mp3'
p351
S'/downloads/Music/Desolation Wilderness/2009 New Universe/08.San Francisco 2AM.mp3'
p352
S'/downloads/Music/Desolation Wilderness/2009 New Universe/09.You Hold A Power Over Me.mp3'
p353
S'/downloads/Music/Desolation Wilderness/2009 New Universe/10.No Tomorrow.mp3'
p354
tp355
a(S'/downloads/Music/Craft Spells/2012 Gallery/01.Still Left With Me.mp3'
p356
S'/downloads/Music/Craft Spells/2012 Gallery/02.Warmth.mp3'
p357
S'/downloads/Music/Craft Spells/2012 Gallery/03.Burst.mp3'
p358
S'/downloads/Music/Craft Spells/2012 Gallery/04.Leave My Shadow.mp3'
p359
S'/downloads/Music/Craft Spells/2012 Gallery/05.Sun Trails.mp3'
p360
S'/downloads/Music/Craft Spells/2012 Gallery/06.Gallery.mp3'
p361
tp362
a(S'/downloads/Music/Desolation Wilderness/2008 Until Forever EP/01.Goodbye Summer Girl.mp3'
p363
S'/downloads/Music/Desolation Wilderness/2008 Until Forever EP/02.Gloria.mp3'
p364
S'/downloads/Music/Desolation Wilderness/2008 Until Forever EP/03.4-4 Love Song.mp3'
p365
tp366
a(S'/downloads/Music/Admiral Radley - I Heart California (2010)'
p367
tp368
a(S'/downloads/Music/Big Deal/2011 Lights Out'
p369
tp370
atp371
Rp372
s.